target datalayout = "e-m:e-p270:32:32-p271:32:32-p272:64:64-i64:64-i128:128-f80:128-n8:16:32:64-S128"
target triple = "x86_64-unknown-linux-gnu"

; Function Attrs: mustprogress nounwind uwtable
define hidden noundef zeroext i1 @_ZN4cvc58internal11NodeManager22isSortKindAbstractableENS0_4kind6Kind_tE(i32 noundef %k) #7 align 2 {
entry:
  %k.addr = alloca i32, align 4
  store i32 %k, ptr %k.addr, align 4
  %0 = load i32, ptr %k.addr, align 4
  %cmp = icmp eq i32 %0, 14
  br i1 %cmp, label %lor.end, label %lor.lhs.false

lor.lhs.false:                                    ; preds = %entry
  %1 = load i32, ptr %k.addr, align 4
  %cmp1 = icmp eq i32 %1, 207
  br i1 %cmp1, label %lor.end, label %lor.lhs.false2

lor.lhs.false2:                                   ; preds = %lor.lhs.false
  %2 = load i32, ptr %k.addr, align 4
  %cmp3 = icmp eq i32 %2, 274
  br i1 %cmp3, label %lor.end, label %lor.lhs.false4

lor.lhs.false4:                                   ; preds = %lor.lhs.false2
  %3 = load i32, ptr %k.addr, align 4
  %cmp5 = icmp eq i32 %3, 82
  br i1 %cmp5, label %lor.end, label %lor.lhs.false6

lor.lhs.false6:                                   ; preds = %lor.lhs.false4
  %4 = load i32, ptr %k.addr, align 4
  %cmp7 = icmp eq i32 %4, 223
  br i1 %cmp7, label %lor.end, label %lor.lhs.false8

lor.lhs.false8:                                   ; preds = %lor.lhs.false6
  %5 = load i32, ptr %k.addr, align 4
  %cmp9 = icmp eq i32 %5, 144
  br i1 %cmp9, label %lor.end, label %lor.lhs.false10

lor.lhs.false10:                                  ; preds = %lor.lhs.false8
  %6 = load i32, ptr %k.addr, align 4
  %cmp11 = icmp eq i32 %6, 152
  br i1 %cmp11, label %lor.end, label %lor.lhs.false12

lor.lhs.false12:                                  ; preds = %lor.lhs.false10
  %7 = load i32, ptr %k.addr, align 4
  %cmp13 = icmp eq i32 %7, 25
  br i1 %cmp13, label %lor.end, label %lor.lhs.false14

lor.lhs.false14:                                  ; preds = %lor.lhs.false12
  %8 = load i32, ptr %k.addr, align 4
  %cmp15 = icmp eq i32 %8, 330
  br i1 %cmp15, label %lor.end, label %lor.rhs

lor.rhs:                                          ; preds = %lor.lhs.false14
  %9 = load i32, ptr %k.addr, align 4
  %cmp16 = icmp eq i32 %9, 244
  br label %lor.end

lor.end:                                          ; preds = %lor.rhs, %lor.lhs.false14, %lor.lhs.false12, %lor.lhs.false10, %lor.lhs.false8, %lor.lhs.false6, %lor.lhs.false4, %lor.lhs.false2, %lor.lhs.false, %entry
  %10 = phi i1 [ true, %lor.lhs.false14 ], [ true, %lor.lhs.false12 ], [ true, %lor.lhs.false10 ], [ true, %lor.lhs.false8 ], [ true, %lor.lhs.false6 ], [ true, %lor.lhs.false4 ], [ true, %lor.lhs.false2 ], [ true, %lor.lhs.false ], [ true, %entry ], [ %cmp16, %lor.rhs ]
  ret i1 %10
}