; Function Attrs: mustprogress nofree norecurse nosync nounwind willreturn memory(none) uwtable
define hidden noundef zeroext i1 @_ZN4cvc58internal11NodeManager22isSortKindAbstractableENS0_4kind6Kind_tE(i32 noundef %k) local_unnamed_addr #13 align 2 {
entry:
  switch i32 %k, label %lor.rhs [
    i32 330, label %lor.end
    i32 274, label %lor.end
    i32 223, label %lor.end
    i32 207, label %lor.end
    i32 152, label %lor.end
    i32 144, label %lor.end
    i32 82, label %lor.end
    i32 25, label %lor.end
    i32 14, label %lor.end
    i32 244, label %lor.end
  ]

lor.rhs:                                          ; preds = %entry
  br label %lor.end

lor.end:                                          ; preds = %entry, %entry, %entry, %entry, %entry, %entry, %entry, %entry, %entry, %entry, %lor.rhs
  %0 = phi i1 [ true, %entry ], [ false, %lor.rhs ], [ true, %entry ], [ true, %entry ], [ true, %entry ], [ true, %entry ], [ true, %entry ], [ true, %entry ], [ true, %entry ], [ true, %entry ], [ true, %entry ]
  ret i1 %0
}